target datalayout = "e-m:e-p270:32:32-p271:32:32-p272:64:64-i64:64-i128:128-f80:128-n8:16:32:64-S128"
target triple = "x86_64-pc-linux-gnu"

%struct.AVFilterContext = type { ptr, ptr, ptr, ptr, ptr, i32, ptr, ptr, i32, ptr, ptr, i32, i32, ptr, ptr, ptr, ptr, i32, ptr, i32, i32 }
%struct.AudioHistogramContext = type { ptr, ptr, i32, i32, %struct.AVRational, ptr, ptr, i32, i32, float, i32, i32, i32, i32, i32, i32, i32, i32, i32, ptr, [101 x ptr], i32, i32, ptr }
%struct.AVRational = type { i32, i32 }
%struct.AVFilterFormatsConfig = type { ptr, ptr, ptr, ptr, ptr }
%struct.AVFilterLink = type { ptr, ptr, ptr, ptr, i32, i32, i32, i32, %struct.AVRational, i32, i32, i32, %struct.AVChannelLayout, %struct.AVRational, ptr, i32, %struct.AVFilterFormatsConfig, %struct.AVFilterFormatsConfig }
%struct.AVChannelLayout = type { i32, i32, %union.anon.1, ptr }
%union.anon.1 = type { i64 }

; Function Attrs: nounwind uwtable
define internal i32 @config_input(ptr noundef %0) #1 {
  %2 = alloca i32, align 4
  %3 = alloca ptr, align 8
  %4 = alloca ptr, align 8
  %5 = alloca ptr, align 8
  %6 = alloca i32, align 4
  store ptr %0, ptr %3, align 8, !tbaa !34
  call void @llvm.lifetime.start.p0(i64 8, ptr %4) #12
  %7 = load ptr, ptr %3, align 8, !tbaa !34
  %8 = getelementptr inbounds nuw %struct.AVFilterLink, ptr %7, i32 0, i32 2
  %9 = load ptr, ptr %8, align 8, !tbaa !47
  store ptr %9, ptr %4, align 8, !tbaa !4
  call void @llvm.lifetime.start.p0(i64 8, ptr %5) #12
  %10 = load ptr, ptr %4, align 8, !tbaa !4
  %11 = getelementptr inbounds nuw %struct.AVFilterContext, ptr %10, i32 0, i32 9
  %12 = load ptr, ptr %11, align 8, !tbaa !9
  store ptr %12, ptr %5, align 8, !tbaa !22
  %13 = load ptr, ptr %3, align 8, !tbaa !34
  %14 = getelementptr inbounds nuw %struct.AVFilterLink, ptr %13, i32 0, i32 11
  %15 = load i32, ptr %14, align 8, !tbaa !53
  %16 = sext i32 %15 to i64
  %17 = load ptr, ptr %5, align 8, !tbaa !22
  %18 = getelementptr inbounds nuw %struct.AudioHistogramContext, ptr %17, i32 0, i32 4
  %19 = getelementptr inbounds nuw %struct.AVRational, ptr %18, i32 0, i32 1
  %20 = load i32, ptr %19, align 4, !tbaa !54
  %21 = sext i32 %20 to i64
  %22 = load ptr, ptr %5, align 8, !tbaa !22
  %23 = getelementptr inbounds nuw %struct.AudioHistogramContext, ptr %22, i32 0, i32 4
  %24 = getelementptr inbounds nuw %struct.AVRational, ptr %23, i32 0, i32 0
  %25 = load i32, ptr %24, align 8, !tbaa !55
  %26 = sext i32 %25 to i64
  %27 = call i64 @av_rescale(i64 noundef %16, i64 noundef %21, i64 noundef %26) #13
  %28 = icmp sgt i64 1, %27
  br i1 %28, label %29, label %30

29:                                               ; preds = %1
  br label %46

30:                                               ; preds = %1
  %31 = load ptr, ptr %3, align 8, !tbaa !34
  %32 = getelementptr inbounds nuw %struct.AVFilterLink, ptr %31, i32 0, i32 11
  %33 = load i32, ptr %32, align 8, !tbaa !53
  %34 = sext i32 %33 to i64
  %35 = load ptr, ptr %5, align 8, !tbaa !22
  %36 = getelementptr inbounds nuw %struct.AudioHistogramContext, ptr %35, i32 0, i32 4
  %37 = getelementptr inbounds nuw %struct.AVRational, ptr %36, i32 0, i32 1
  %38 = load i32, ptr %37, align 4, !tbaa !54
  %39 = sext i32 %38 to i64
  %40 = load ptr, ptr %5, align 8, !tbaa !22
  %41 = getelementptr inbounds nuw %struct.AudioHistogramContext, ptr %40, i32 0, i32 4
  %42 = getelementptr inbounds nuw %struct.AVRational, ptr %41, i32 0, i32 0
  %43 = load i32, ptr %42, align 8, !tbaa !55
  %44 = sext i32 %43 to i64
  %45 = call i64 @av_rescale(i64 noundef %34, i64 noundef %39, i64 noundef %44) #13
  br label %46

46:                                               ; preds = %30, %29
  %47 = phi i64 [ 1, %29 ], [ %45, %30 ]
  %48 = trunc i64 %47 to i32
  %49 = load ptr, ptr %5, align 8, !tbaa !22
  %50 = getelementptr inbounds nuw %struct.AudioHistogramContext, ptr %49, i32 0, i32 22
  store i32 %48, ptr %50, align 4, !tbaa !37
  %51 = load ptr, ptr %5, align 8, !tbaa !22
  %52 = getelementptr inbounds nuw %struct.AudioHistogramContext, ptr %51, i32 0, i32 14
  %53 = load i32, ptr %52, align 4, !tbaa !56
  %54 = icmp eq i32 %53, 0
  br i1 %54, label %55, label %56

55:                                               ; preds = %46
  br label %61

56:                                               ; preds = %46
  %57 = load ptr, ptr %3, align 8, !tbaa !34
  %58 = getelementptr inbounds nuw %struct.AVFilterLink, ptr %57, i32 0, i32 12
  %59 = getelementptr inbounds nuw %struct.AVChannelLayout, ptr %58, i32 0, i32 1
  %60 = load i32, ptr %59, align 4, !tbaa !57
  br label %61

61:                                               ; preds = %56, %55
  %62 = phi i32 [ 1, %55 ], [ %60, %56 ]
  %63 = load ptr, ptr %5, align 8, !tbaa !22
  %64 = getelementptr inbounds nuw %struct.AudioHistogramContext, ptr %63, i32 0, i32 16
  store i32 %62, ptr %64, align 4, !tbaa !58
  %65 = load ptr, ptr %5, align 8, !tbaa !22
  %66 = getelementptr inbounds nuw %struct.AudioHistogramContext, ptr %65, i32 0, i32 2
  %67 = load i32, ptr %66, align 8, !tbaa !59
  %68 = sext i32 %67 to i64
  %69 = load ptr, ptr %5, align 8, !tbaa !22
  %70 = getelementptr inbounds nuw %struct.AudioHistogramContext, ptr %69, i32 0, i32 16
  %71 = load i32, ptr %70, align 4, !tbaa !58
  %72 = sext i32 %71 to i64
  %73 = mul i64 %72, 8
  %74 = call noalias ptr @av_calloc(i64 noundef %68, i64 noundef %73)
  %75 = load ptr, ptr %5, align 8, !tbaa !22
  %76 = getelementptr inbounds nuw %struct.AudioHistogramContext, ptr %75, i32 0, i32 6
  store ptr %74, ptr %76, align 8, !tbaa !60
  %77 = load ptr, ptr %5, align 8, !tbaa !22
  %78 = getelementptr inbounds nuw %struct.AudioHistogramContext, ptr %77, i32 0, i32 6
  %79 = load ptr, ptr %78, align 8, !tbaa !60
  %80 = icmp ne ptr %79, null
  br i1 %80, label %82, label %81

81:                                               ; preds = %61
  store i32 -12, ptr %2, align 4
  store i32 1, ptr %6, align 4
  br label %101

82:                                               ; preds = %61
  %83 = load ptr, ptr %5, align 8, !tbaa !22
  %84 = getelementptr inbounds nuw %struct.AudioHistogramContext, ptr %83, i32 0, i32 2
  %85 = load i32, ptr %84, align 8, !tbaa !59
  %86 = sext i32 %85 to i64
  %87 = load ptr, ptr %5, align 8, !tbaa !22
  %88 = getelementptr inbounds nuw %struct.AudioHistogramContext, ptr %87, i32 0, i32 16
  %89 = load i32, ptr %88, align 4, !tbaa !58
  %90 = sext i32 %89 to i64
  %91 = mul i64 %90, 8
  %92 = call noalias ptr @av_calloc(i64 noundef %86, i64 noundef %91)
  %93 = load ptr, ptr %5, align 8, !tbaa !22
  %94 = getelementptr inbounds nuw %struct.AudioHistogramContext, ptr %93, i32 0, i32 5
  store ptr %92, ptr %94, align 8, !tbaa !61
  %95 = load ptr, ptr %5, align 8, !tbaa !22
  %96 = getelementptr inbounds nuw %struct.AudioHistogramContext, ptr %95, i32 0, i32 5
  %97 = load ptr, ptr %96, align 8, !tbaa !61
  %98 = icmp ne ptr %97, null
  br i1 %98, label %100, label %99

99:                                               ; preds = %82
  store i32 -12, ptr %2, align 4
  store i32 1, ptr %6, align 4
  br label %101

100:                                              ; preds = %82
  store i32 0, ptr %2, align 4
  store i32 1, ptr %6, align 4
  br label %101

101:                                              ; preds = %100, %99, %81
  call void @llvm.lifetime.end.p0(i64 8, ptr %5) #12
  call void @llvm.lifetime.end.p0(i64 8, ptr %4) #12
  %102 = load i32, ptr %2, align 4
  ret i32 %102
}