; Function Attrs: nounwind uwtable
define internal range(i32 -12, 1) i32 @config_input(ptr noundef readonly captures(none) %0) #1 {
  %2 = getelementptr inbounds nuw i8, ptr %0, i64 16
  %3 = load ptr, ptr %2, align 8, !tbaa !36
  %4 = getelementptr inbounds nuw i8, ptr %3, i64 72
  %5 = load ptr, ptr %4, align 8, !tbaa !4
  %6 = getelementptr inbounds nuw i8, ptr %0, i64 64
  %7 = load i32, ptr %6, align 8, !tbaa !98
  %8 = sext i32 %7 to i64
  %9 = getelementptr inbounds nuw i8, ptr %5, i64 24
  %10 = getelementptr inbounds nuw i8, ptr %5, i64 28
  %11 = load i32, ptr %10, align 4, !tbaa !99
  %12 = sext i32 %11 to i64
  %13 = load i32, ptr %9, align 8, !tbaa !100
  %14 = sext i32 %13 to i64
  %15 = tail call i64 @av_rescale(i64 noundef %8, i64 noundef %12, i64 noundef %14) #13
  %spec.select22 = tail call i64 @llvm.smax.i64(i64 %15, i64 1)
  %spec.select = trunc i64 %spec.select22 to i32
  %16 = getelementptr inbounds nuw i8, ptr %5, i64 916
  store i32 %spec.select, ptr %16, align 4, !tbaa !28
  %17 = getelementptr inbounds nuw i8, ptr %5, i64 76
  %18 = load i32, ptr %17, align 4, !tbaa !61
  %19 = icmp eq i32 %18, 0
  br i1 %19, label %23, label %20

20:                                               ; preds = %1
  %21 = getelementptr inbounds nuw i8, ptr %0, i64 76
  %22 = load i32, ptr %21, align 4, !tbaa !71
  br label %23

23:                                               ; preds = %1, %20
  %24 = phi i32 [ %22, %20 ], [ 1, %1 ]
  %25 = getelementptr inbounds nuw i8, ptr %5, i64 84
  store i32 %24, ptr %25, align 4, !tbaa !84
  %26 = getelementptr inbounds nuw i8, ptr %5, i64 16
  %27 = load i32, ptr %26, align 8, !tbaa !51
  %28 = sext i32 %27 to i64
  %29 = sext i32 %24 to i64
  %30 = shl nsw i64 %29, 3
  %31 = tail call noalias ptr @av_calloc(i64 noundef %28, i64 noundef %30) #12
  %32 = getelementptr inbounds nuw i8, ptr %5, i64 40
  store ptr %31, ptr %32, align 8, !tbaa !78
  %.not = icmp eq ptr %31, null
  br i1 %.not, label %41, label %33

33:                                               ; preds = %23
  %34 = load i32, ptr %26, align 8, !tbaa !51
  %35 = sext i32 %34 to i64
  %36 = load i32, ptr %25, align 4, !tbaa !84
  %37 = sext i32 %36 to i64
  %38 = shl nsw i64 %37, 3
  %39 = tail call noalias ptr @av_calloc(i64 noundef %35, i64 noundef %38) #12
  %40 = getelementptr inbounds nuw i8, ptr %5, i64 32
  store ptr %39, ptr %40, align 8, !tbaa !73
  %.not21 = icmp eq ptr %39, null
  %. = select i1 %.not21, i32 -12, i32 0
  br label %41

41:                                               ; preds = %33, %23
  %.0 = phi i32 [ -12, %23 ], [ %., %33 ]
  ret i32 %.0
}